; Function Attrs: nounwind uwtable
define hidden noundef ptr @lj_strfmt_putptr(ptr noundef returned %0, ptr noundef %1) local_unnamed_addr #5 {
  %3 = getelementptr inbounds nuw i8, ptr %0, i64 8
  %4 = load ptr, ptr %3, align 8, !tbaa !35
  %5 = load ptr, ptr %0, align 8, !tbaa !34
  %6 = ptrtoint ptr %4 to i64
  %7 = ptrtoint ptr %5 to i64
  %8 = sub i64 %6, %7
  %9 = trunc i64 %8 to i32
  %10 = icmp ult i32 %9, 18
  br i1 %10, label %11, label %lj_buf_more.exit, !prof !36

11:                                               ; preds = %2
  %12 = tail call ptr @lj_buf_more2(ptr noundef nonnull %0, i32 noundef 18) #13
  br label %lj_buf_more.exit

lj_buf_more.exit:                                 ; preds = %2, %11
  %.0.i = phi ptr [ %12, %11 ], [ %5, %2 ]
  %13 = ptrtoint ptr %1 to i64
  %14 = icmp eq ptr %1, null
  br i1 %14, label %15, label %20

15:                                               ; preds = %lj_buf_more.exit
  %16 = getelementptr inbounds nuw i8, ptr %.0.i, i64 1
  store i8 78, ptr %.0.i, align 1, !tbaa !13
  %17 = getelementptr inbounds nuw i8, ptr %.0.i, i64 2
  store i8 85, ptr %16, align 1, !tbaa !13
  %18 = getelementptr inbounds nuw i8, ptr %.0.i, i64 3
  store i8 76, ptr %17, align 1, !tbaa !13
  %19 = getelementptr inbounds nuw i8, ptr %.0.i, i64 4
  store i8 76, ptr %18, align 1, !tbaa !13
  br label %lj_strfmt_wptr.exit

20:                                               ; preds = %lj_buf_more.exit
  %.not.i = icmp ult ptr %1, inttoptr (i64 4294967296 to ptr)
  br i1 %.not.i, label %.lr.ph.preheader.i, label %21

21:                                               ; preds = %20
  %22 = lshr i64 %13, 32
  %23 = trunc nuw i64 %22 to i32
  %24 = tail call range(i32 0, 33) i32 @llvm.ctlz.i32(i32 %23, i1 true)
  %25 = lshr i32 %24, 2
  %26 = and i32 %25, 6
  %27 = xor i32 %26, 6
  %28 = add nuw nsw i32 %27, 12
  br label %.lr.ph.preheader.i

.lr.ph.preheader.i:                               ; preds = %21, %20
  %29 = phi i32 [ %28, %21 ], [ 10, %20 ]
  store i8 48, ptr %.0.i, align 1, !tbaa !13
  %30 = getelementptr inbounds nuw i8, ptr %.0.i, i64 1
  store i8 120, ptr %30, align 1, !tbaa !13
  %.024.i = add nsw i32 %29, -1
  %31 = zext nneg i32 %.024.i to i64
  br label %.lr.ph.i

.lr.ph.i:                                         ; preds = %.lr.ph.i, %.lr.ph.preheader.i
  %indvars.iv.i = phi i64 [ %31, %.lr.ph.preheader.i ], [ %indvars.iv.next.i, %.lr.ph.i ]
  %.02025.i = phi i64 [ %13, %.lr.ph.preheader.i ], [ %36, %.lr.ph.i ]
  %32 = and i64 %.02025.i, 15
  %33 = getelementptr inbounds nuw [17 x i8], ptr @.str, i64 0, i64 %32
  %34 = load i8, ptr %33, align 1, !tbaa !13
  %35 = getelementptr inbounds nuw i8, ptr %.0.i, i64 %indvars.iv.i
  store i8 %34, ptr %35, align 1, !tbaa !13
  %36 = ashr i64 %.02025.i, 4
  %indvars.iv.next.i = add nsw i64 %indvars.iv.i, -1
  %37 = and i64 %indvars.iv.next.i, 4294967294
  %.not28.i = icmp eq i64 %37, 0
  br i1 %.not28.i, label %._crit_edge.i, label %.lr.ph.i, !llvm.loop !19

._crit_edge.i:                                    ; preds = %.lr.ph.i
  %38 = zext nneg i32 %29 to i64
  %39 = getelementptr inbounds nuw i8, ptr %.0.i, i64 %38
  br label %lj_strfmt_wptr.exit

lj_strfmt_wptr.exit:                              ; preds = %15, %._crit_edge.i
  %.021.i = phi ptr [ %19, %15 ], [ %39, %._crit_edge.i ]
  store ptr %.021.i, ptr %0, align 8, !tbaa !34
  ret ptr %0
}